target datalayout = "e-m:e-p270:32:32-p271:32:32-p272:64:64-i64:64-i128:128-f80:128-n8:16:32:64-S128"
target triple = "x86_64-pc-linux-gnu"

%struct.SDL_AtomicInt = type { i32 }
%struct.SDL_AudioSpec = type { i32, i32, i32 }
%struct.SDL_AudioDevice = type { ptr, ptr, %struct.SDL_AtomicInt, ptr, ptr, ptr, ptr, ptr, ptr, ptr, i32, ptr, %struct.SDL_AudioSpec, i32, ptr, %struct.SDL_AudioSpec, i32, i32, %struct.SDL_AtomicInt, %struct.SDL_AtomicInt, i8, i8, ptr, ptr, ptr, i32, ptr, i8, ptr, ptr }

; Function Attrs: nounwind uwtable
define hidden ptr @SDL_ChannelMapDup(ptr noundef %0, i32 noundef %1) #0 {
  %3 = alloca ptr, align 8
  %4 = alloca i32, align 4
  %5 = alloca i64, align 8
  %6 = alloca ptr, align 8
  store ptr %0, ptr %3, align 8
  store i32 %1, ptr %4, align 4
  call void @llvm.lifetime.start.p0(i64 8, ptr %5) #6
  %7 = load i32, ptr %4, align 4
  %8 = sext i32 %7 to i64
  %9 = mul i64 4, %8
  store i64 %9, ptr %5, align 8
  call void @llvm.lifetime.start.p0(i64 8, ptr %6) #6
  %10 = load i64, ptr %5, align 8
  %11 = call noalias ptr @SDL_malloc_REAL(i64 noundef %10)
  store ptr %11, ptr %6, align 8
  %12 = load ptr, ptr %6, align 8
  %13 = icmp ne ptr %12, null
  br i1 %13, label %14, label %18

14:                                               ; preds = %2
  %15 = load ptr, ptr %6, align 8
  %16 = load ptr, ptr %3, align 8
  %17 = load i64, ptr %5, align 8
  call void @llvm.memcpy.p0.p0.i64(ptr align 4 %15, ptr align 4 %16, i64 %17, i1 false)
  br label %18

18:                                               ; preds = %14, %2
  %19 = load ptr, ptr %6, align 8
  call void @llvm.lifetime.end.p0(i64 8, ptr %6) #6
  call void @llvm.lifetime.end.p0(i64 8, ptr %5) #6
  ret ptr %19
}

; Function Attrs: nounwind uwtable
define hidden ptr @SDL_GetAudioDeviceChannelMap_REAL(i32 noundef %0, ptr noundef %1) #0 {
  %3 = alloca i32, align 4
  %4 = alloca ptr, align 8
  %5 = alloca ptr, align 8
  %6 = alloca i32, align 4
  %7 = alloca ptr, align 8
  store i32 %0, ptr %3, align 4
  store ptr %1, ptr %4, align 8
  call void @llvm.lifetime.start.p0(i64 8, ptr %5) #6
  store ptr null, ptr %5, align 8
  call void @llvm.lifetime.start.p0(i64 4, ptr %6) #6
  store i32 0, ptr %6, align 4
  call void @llvm.lifetime.start.p0(i64 8, ptr %7) #6
  %8 = load i32, ptr %3, align 4
  %9 = call ptr @ObtainPhysicalAudioDeviceDefaultAllowed(i32 noundef %8)
  store ptr %9, ptr %7, align 8
  %10 = load ptr, ptr %7, align 8
  %11 = icmp ne ptr %10, null
  br i1 %11, label %12, label %22

12:                                               ; preds = %2
  %13 = load ptr, ptr %7, align 8
  %14 = getelementptr inbounds nuw %struct.SDL_AudioDevice, ptr %13, i32 0, i32 12
  %15 = getelementptr inbounds nuw %struct.SDL_AudioSpec, ptr %14, i32 0, i32 1
  %16 = load i32, ptr %15, align 4
  store i32 %16, ptr %6, align 4
  %17 = load ptr, ptr %7, align 8
  %18 = getelementptr inbounds nuw %struct.SDL_AudioDevice, ptr %17, i32 0, i32 14
  %19 = load ptr, ptr %18, align 8
  %20 = load i32, ptr %6, align 4
  %21 = call ptr @SDL_ChannelMapDup(ptr noundef %19, i32 noundef %20)
  store ptr %21, ptr %5, align 8
  br label %22

22:                                               ; preds = %12, %2
  %23 = load ptr, ptr %7, align 8
  call void @ReleaseAudioDevice(ptr noundef %23)
  %24 = load ptr, ptr %4, align 8
  %25 = icmp ne ptr %24, null
  br i1 %25, label %26, label %29

26:                                               ; preds = %22
  %27 = load i32, ptr %6, align 4
  %28 = load ptr, ptr %4, align 8
  store i32 %27, ptr %28, align 4
  br label %29

29:                                               ; preds = %26, %22
  %30 = load ptr, ptr %5, align 8
  call void @llvm.lifetime.end.p0(i64 8, ptr %7) #6
  call void @llvm.lifetime.end.p0(i64 4, ptr %6) #6
  call void @llvm.lifetime.end.p0(i64 8, ptr %5) #6
  ret ptr %30
}