; Function Attrs: nounwind uwtable
define hidden noalias ptr @SDL_GetAudioDeviceChannelMap_REAL(i32 noundef %0, ptr noundef writeonly captures(address_is_null) %1) local_unnamed_addr #0 {
  %3 = tail call fastcc ptr @ObtainPhysicalAudioDeviceDefaultAllowed(i32 noundef %0)
  %.not = icmp eq ptr %3, null
  br i1 %.not, label %.split, label %.split11

.split11:                                         ; preds = %2
  %4 = getelementptr inbounds nuw i8, ptr %3, i64 100
  %5 = load i32, ptr %4, align 4
  %6 = getelementptr inbounds nuw i8, ptr %3, i64 112
  %7 = load ptr, ptr %6, align 8
  %8 = sext i32 %5 to i64
  %9 = shl nsw i64 %8, 2
  %10 = tail call noalias ptr @SDL_malloc_REAL(i64 noundef %9) #14
  %.not.i = icmp eq ptr %10, null
  br i1 %.not.i, label %SDL_ChannelMapDup.exit, label %11

11:                                               ; preds = %.split11
  tail call void @llvm.memcpy.p0.p0.i64(ptr nonnull align 4 %10, ptr readonly align 4 %7, i64 %9, i1 false)
  br label %SDL_ChannelMapDup.exit

SDL_ChannelMapDup.exit:                           ; preds = %.split11, %11
  tail call fastcc void @ReleaseAudioDevice(ptr noundef nonnull %3)
  br label %.split

.split:                                           ; preds = %2, %SDL_ChannelMapDup.exit
  %.09 = phi i32 [ %5, %SDL_ChannelMapDup.exit ], [ 0, %2 ]
  %.0 = phi ptr [ %10, %SDL_ChannelMapDup.exit ], [ null, %2 ]
  %.not14 = icmp eq ptr %1, null
  br i1 %.not14, label %13, label %12

12:                                               ; preds = %.split
  store i32 %.09, ptr %1, align 4
  br label %13

13:                                               ; preds = %12, %.split
  ret ptr %.0
}